; Function Attrs: mustprogress nofree norecurse nosync nounwind willreturn memory(write, argmem: readwrite, inaccessiblemem: none) uwtable
define hidden void @_ZN3sat14anf_simplifier12set_relevantERKSt4pairINS_7literalES2_E(ptr nocapture noundef nonnull readonly align 8 dereferenceable(96) %this, ptr nocapture noundef nonnull readonly align 4 dereferenceable(8) %b) local_unnamed_addr #6 align 2 {
entry:
  %agg.tmp.sroa.0.0.copyload = load i32, ptr %b, align 4
  %shr.i.i = lshr i32 %agg.tmp.sroa.0.0.copyload, 1
  %m_relevant.i.i = getelementptr inbounds i8, ptr %this, i64 24
  %0 = load ptr, ptr %m_relevant.i.i, align 8
  %idxprom.i.i.i = zext nneg i32 %shr.i.i to i64
  %arrayidx.i.i.i = getelementptr inbounds i8, ptr %0, i64 %idxprom.i.i.i
  store i8 1, ptr %arrayidx.i.i.i, align 1
  %second = getelementptr inbounds i8, ptr %b, i64 4
  %agg.tmp2.sroa.0.0.copyload = load i32, ptr %second, align 4
  %shr.i.i2 = lshr i32 %agg.tmp2.sroa.0.0.copyload, 1
  %1 = load ptr, ptr %m_relevant.i.i, align 8
  %idxprom.i.i.i4 = zext nneg i32 %shr.i.i2 to i64
  %arrayidx.i.i.i5 = getelementptr inbounds i8, ptr %1, i64 %idxprom.i.i.i4
  store i8 1, ptr %arrayidx.i.i.i5, align 1
  ret void
}